; Function Attrs: mustprogress nounwind uwtable
define hidden void @_ZN12MemAllocator10Allocation29notify_allocation_jfr_samplerEv(ptr nocapture noundef nonnull readonly align 8 dereferenceable(41) %0) local_unnamed_addr #0 align 2 {
  %2 = getelementptr inbounds i8, ptr %0, i64 16
  %3 = load ptr, ptr %2, align 8
  %4 = load ptr, ptr %3, align 8
  %5 = load ptr, ptr %0, align 8
  %6 = getelementptr inbounds i8, ptr %5, i64 24
  %7 = load i64, ptr %6, align 8
  %8 = shl i64 %7, 3
  %9 = getelementptr inbounds i8, ptr %0, i64 25
  %10 = load i8, ptr %9, align 1
  %11 = trunc i8 %10 to i1
  br i1 %11, label %12, label %30

12:                                               ; preds = %1
  %13 = load i8, ptr @UseCompressedClassPointers, align 1
  %14 = trunc i8 %13 to i1
  %15 = getelementptr inbounds i8, ptr %4, i64 8
  br i1 %14, label %16, label %26

16:                                               ; preds = %12
  %17 = load i32, ptr %15, align 8
  %18 = load ptr, ptr @_ZN23CompressedKlassPointers5_baseE, align 8
  %19 = load i32, ptr @_ZN23CompressedKlassPointers6_shiftE, align 4
  %20 = ptrtoint ptr %18 to i64
  %21 = zext i32 %17 to i64
  %22 = zext nneg i32 %19 to i64
  %23 = shl i64 %21, %22
  %24 = add i64 %23, %20
  %25 = inttoptr i64 %24 to ptr
  br label %_ZNK7oopDesc5klassEv.exit

26:                                               ; preds = %12
  %27 = load ptr, ptr %15, align 8
  br label %_ZNK7oopDesc5klassEv.exit

_ZNK7oopDesc5klassEv.exit:                        ; preds = %16, %26
  %.0.i = phi ptr [ %25, %16 ], [ %27, %26 ]
  %28 = getelementptr inbounds i8, ptr %0, i64 8
  %29 = load ptr, ptr %28, align 8
  tail call void @_ZN11AllocTracer28send_allocation_outside_tlabEP5KlassPP12HeapWordImplmP10JavaThread(ptr noundef %.0.i, ptr noundef nonnull %4, i64 noundef %8, ptr noundef %29) #10
  br label %52

30:                                               ; preds = %1
  %31 = getelementptr inbounds i8, ptr %0, i64 32
  %32 = load i64, ptr %31, align 8
  %.not = icmp eq i64 %32, 0
  br i1 %.not, label %52, label %33

33:                                               ; preds = %30
  %34 = load i8, ptr @UseCompressedClassPointers, align 1
  %35 = trunc i8 %34 to i1
  %36 = getelementptr inbounds i8, ptr %4, i64 8
  br i1 %35, label %37, label %47

37:                                               ; preds = %33
  %38 = load i32, ptr %36, align 8
  %39 = load ptr, ptr @_ZN23CompressedKlassPointers5_baseE, align 8
  %40 = load i32, ptr @_ZN23CompressedKlassPointers6_shiftE, align 4
  %41 = ptrtoint ptr %39 to i64
  %42 = zext i32 %38 to i64
  %43 = zext nneg i32 %40 to i64
  %44 = shl i64 %42, %43
  %45 = add i64 %44, %41
  %46 = inttoptr i64 %45 to ptr
  br label %_ZNK7oopDesc5klassEv.exit5

47:                                               ; preds = %33
  %48 = load ptr, ptr %36, align 8
  br label %_ZNK7oopDesc5klassEv.exit5

_ZNK7oopDesc5klassEv.exit5:                       ; preds = %37, %47
  %.0.i4 = phi ptr [ %46, %37 ], [ %48, %47 ]
  %49 = shl i64 %32, 3
  %50 = getelementptr inbounds i8, ptr %0, i64 8
  %51 = load ptr, ptr %50, align 8
  tail call void @_ZN11AllocTracer27send_allocation_in_new_tlabEP5KlassPP12HeapWordImplmmP10JavaThread(ptr noundef %.0.i4, ptr noundef nonnull %4, i64 noundef %49, i64 noundef %8, ptr noundef %51) #10
  br label %52

52:                                               ; preds = %30, %_ZNK7oopDesc5klassEv.exit5, %_ZNK7oopDesc5klassEv.exit
  ret void
}